; Function Attrs: mustprogress uwtable
define noundef ptr @_ZNK7rocksdb22BlockBasedTableBuilder23GetFileChecksumFuncNameEv(ptr nocapture noundef nonnull readonly align 8 dereferenceable(24) %this) unnamed_addr #3 align 2 {
entry:
  %rep_ = getelementptr inbounds i8, ptr %this, i64 8
  %0 = load ptr, ptr %rep_, align 8
  %file = getelementptr inbounds i8, ptr %0, i64 1152
  %1 = load ptr, ptr %file, align 8
  %cmp.not = icmp eq ptr %1, null
  br i1 %cmp.not, label %return, label %if.then

if.then:                                          ; preds = %entry
  %call = tail call noundef ptr @_ZNK7rocksdb18WritableFileWriter23GetFileChecksumFuncNameEv(ptr noundef nonnull align 8 dereferenceable(218) %1)
  br label %return

return:                                           ; preds = %entry, %if.then
  %retval.0 = phi ptr [ %call, %if.then ], [ @_ZN7rocksdbL28kUnknownFileChecksumFuncNameE, %entry ]
  ret ptr %retval.0
}